target datalayout = "e-m:e-p270:32:32-p271:32:32-p272:64:64-i64:64-i128:128-f80:128-n8:16:32:64-S128"
target triple = "x86_64-pc-linux-gnu"

%struct.BufFile = type { i32, ptr, i8, i8, i8, ptr, ptr, ptr, i32, i64, i32, i32, %union.PGAlignedBlock }
%union.PGAlignedBlock = type { double, [8184 x i8] }

@.str.1 = private unnamed_addr constant [10 x i8] c"buffile.c\00", align 1
@.str.3 = private unnamed_addr constant [70 x i8] c"could not determine size of temporary file \22%s\22 from BufFile \22%s\22: %m\00", align 1
@__func__.BufFileSize = private unnamed_addr constant [12 x i8] c"BufFileSize\00", align 1

; Function Attrs: nounwind uwtable
define dso_local i64 @BufFileSize(ptr noundef %0) #0 {
  %2 = alloca ptr, align 8
  %3 = alloca i64, align 8
  store ptr %0, ptr %2, align 8
  call void @llvm.lifetime.start.p0(i64 8, ptr %3) #8
  %4 = load ptr, ptr %2, align 8
  %5 = getelementptr inbounds nuw %struct.BufFile, ptr %4, i32 0, i32 1
  %6 = load ptr, ptr %5, align 8
  %7 = load ptr, ptr %2, align 8
  %8 = getelementptr inbounds nuw %struct.BufFile, ptr %7, i32 0, i32 0
  %9 = load i32, ptr %8, align 8
  %10 = sub i32 %9, 1
  %11 = sext i32 %10 to i64
  %12 = getelementptr inbounds i32, ptr %6, i64 %11
  %13 = load i32, ptr %12, align 4
  %14 = call i64 @FileSize(i32 noundef %13)
  store i64 %14, ptr %3, align 8
  %15 = load i64, ptr %3, align 8
  %16 = icmp slt i64 %15, 0
  br i1 %16, label %17, label %43

17:                                               ; preds = %1
  br label %18

18:                                               ; preds = %17
  br i1 true, label %19, label %21

19:                                               ; preds = %18
  %20 = call zeroext i1 @errstart_cold(i32 noundef 21, ptr noundef null) #9
  br i1 %20, label %23, label %40

21:                                               ; preds = %18
  %22 = call zeroext i1 @errstart(i32 noundef 21, ptr noundef null)
  br i1 %22, label %23, label %40

23:                                               ; preds = %21, %19
  %24 = call i32 @errcode_for_file_access()
  %25 = load ptr, ptr %2, align 8
  %26 = getelementptr inbounds nuw %struct.BufFile, ptr %25, i32 0, i32 1
  %27 = load ptr, ptr %26, align 8
  %28 = load ptr, ptr %2, align 8
  %29 = getelementptr inbounds nuw %struct.BufFile, ptr %28, i32 0, i32 0
  %30 = load i32, ptr %29, align 8
  %31 = sub i32 %30, 1
  %32 = sext i32 %31 to i64
  %33 = getelementptr inbounds i32, ptr %27, i64 %32
  %34 = load i32, ptr %33, align 4
  %35 = call ptr @FilePathName(i32 noundef %34)
  %36 = load ptr, ptr %2, align 8
  %37 = getelementptr inbounds nuw %struct.BufFile, ptr %36, i32 0, i32 6
  %38 = load ptr, ptr %37, align 8
  %39 = call i32 (ptr, ...) @errmsg(ptr noundef @.str.3, ptr noundef %35, ptr noundef %38)
  call void @errfinish(ptr noundef @.str.1, i32 noundef 877, ptr noundef @__func__.BufFileSize)
  br label %40

40:                                               ; preds = %23, %21, %19
  unreachable

41:                                               ; No predecessors!
  br label %42

42:                                               ; preds = %41
  br label %43

43:                                               ; preds = %42, %1
  %44 = load ptr, ptr %2, align 8
  %45 = getelementptr inbounds nuw %struct.BufFile, ptr %44, i32 0, i32 0
  %46 = load i32, ptr %45, align 8
  %47 = sub i32 %46, 1
  %48 = sext i32 %47 to i64
  %49 = mul i64 %48, 1073741824
  %50 = load i64, ptr %3, align 8
  %51 = add i64 %49, %50
  call void @llvm.lifetime.end.p0(i64 8, ptr %3) #8
  ret i64 %51
}