; Function Attrs: nounwind uwtable
define dso_local range(i64 -2305843009213693952, -6917529028714823680) i64 @BufFileSize(ptr noundef readonly captures(none) %0) local_unnamed_addr #0 {
  %2 = getelementptr inbounds nuw i8, ptr %0, i64 8
  %3 = load ptr, ptr %2, align 8
  %4 = load i32, ptr %0, align 8
  %5 = add i32 %4, -1
  %6 = sext i32 %5 to i64
  %7 = getelementptr inbounds i32, ptr %3, i64 %6
  %8 = load i32, ptr %7, align 4
  %9 = tail call i64 @FileSize(i32 noundef %8) #10
  %10 = icmp slt i64 %9, 0
  br i1 %10, label %11, label %24

11:                                               ; preds = %1
  %12 = tail call zeroext i1 @errstart_cold(i32 noundef 21, ptr noundef null) #11
  tail call void @llvm.assume(i1 %12)
  %13 = tail call i32 @errcode_for_file_access() #10
  %14 = load ptr, ptr %2, align 8
  %15 = load i32, ptr %0, align 8
  %16 = add i32 %15, -1
  %17 = sext i32 %16 to i64
  %18 = getelementptr inbounds i32, ptr %14, i64 %17
  %19 = load i32, ptr %18, align 4
  %20 = tail call ptr @FilePathName(i32 noundef %19) #10
  %21 = getelementptr inbounds nuw i8, ptr %0, i64 32
  %22 = load ptr, ptr %21, align 8
  %23 = tail call i32 (ptr, ...) @errmsg(ptr noundef nonnull @.str.3, ptr noundef %20, ptr noundef %22) #10
  tail call void @errfinish(ptr noundef nonnull @.str.1, i32 noundef 877, ptr noundef nonnull @__func__.BufFileSize) #10
  unreachable

24:                                               ; preds = %1
  %25 = load i32, ptr %0, align 8
  %26 = add i32 %25, -1
  %27 = sext i32 %26 to i64
  %28 = shl nsw i64 %27, 30
  %29 = add i64 %28, %9
  ret i64 %29
}